TN:
SF:/home/ito/work/simple/src/calc/calc.cpp
FN:8,_Z3Addii
FN:14,_Z8calc_fftv
FNDA:0,_Z8calc_fftv
FNDA:0,_Z3Addii
FNF:2
FNH:0
DA:8,0
DA:11,0
DA:14,0
DA:24,0
DA:25,0
DA:28,0
DA:30,0
DA:31,0
DA:35,0
DA:36,0
DA:39,0
DA:41,0
DA:42,0
DA:43,0
DA:44,0
DA:45,0
DA:49,0
DA:50,0
DA:51,0
DA:53,0
LF:20
LH:0
end_of_record
TN:
SF:/home/ito/work/simple/src/calc/calc_unittest.cpp
FN:4,_ZN15calc_test1_TestD0Ev
FN:4,_ZN15calc_test1_TestD2Ev
FN:4,_ZN15calc_test1_TestC2Ev
FN:4,_ZN15calc_test1_Test8TestBodyEv
FNDA:6,_ZN15calc_test1_Test8TestBodyEv
FNDA:6,_ZN15calc_test1_TestC2Ev
FNDA:6,_ZN15calc_test1_TestD0Ev
FNDA:6,_ZN15calc_test1_TestD2Ev
FNF:4
FNH:4
DA:4,24
DA:6,6
DA:7,1
LF:3
LH:3
end_of_record
TN:
SF:/home/ito/work/simple/src/test/test_utility.cpp
FN:4,_ZN23test_utility_test1_Test8TestBodyEv
FN:4,_ZN23test_utility_test1_TestD0Ev
FN:4,_ZN23test_utility_test1_TestD2Ev
FN:4,_ZN23test_utility_test1_TestC2Ev
FN:9,_ZN23test_utility_test2_Test8TestBodyEv
FN:9,_ZN23test_utility_test2_TestC2Ev
FN:9,_ZN23test_utility_test2_TestD0Ev
FN:9,_ZN23test_utility_test2_TestD2Ev
FN:14,_ZN23test_utility_test3_TestD2Ev
FN:14,_ZN23test_utility_test3_Test8TestBodyEv
FN:14,_ZN23test_utility_test3_TestD0Ev
FN:14,_ZN23test_utility_test3_TestC2Ev
FNDA:5,_ZN23test_utility_test3_TestC2Ev
FNDA:5,_ZN23test_utility_test3_TestD0Ev
FNDA:5,_ZN23test_utility_test2_TestD2Ev
FNDA:5,_ZN23test_utility_test2_TestD0Ev
FNDA:5,_ZN23test_utility_test1_TestD0Ev
FNDA:5,_ZN23test_utility_test2_TestC2Ev
FNDA:5,_ZN23test_utility_test1_TestC2Ev
FNDA:5,_ZN23test_utility_test1_TestD2Ev
FNDA:5,_ZN23test_utility_test3_TestD2Ev
FNDA:5,_ZN23test_utility_test1_Test8TestBodyEv
FNDA:5,_ZN23test_utility_test2_Test8TestBodyEv
FNDA:5,_ZN23test_utility_test3_Test8TestBodyEv
FNF:12
FNH:12
DA:4,20
DA:6,5
DA:9,20
DA:11,5
DA:14,20
DA:16,5
LF:6
LH:6
end_of_record
TN:
SF:/home/ito/work/simple/src/utility/utility.cpp
FN:4,_Z5Printii
FNDA:1,_Z5Printii
FNF:1
FNH:1
DA:4,1
DA:6,1
DA:7,1
DA:9,0
LF:4
LH:3
end_of_record
TN:
SF:/home/ito/work/simple/src/utility/utility_unittest.cpp
FN:4,_ZN23test_utility_test1_Test8TestBodyEv
FN:4,_ZN23test_utility_test1_TestC2Ev
FN:4,_ZN23test_utility_test1_TestD2Ev
FN:4,_ZN23test_utility_test1_TestD0Ev
FN:9,_ZN23test_utility_test2_TestD2Ev
FN:9,_ZN23test_utility_test2_TestD0Ev
FN:9,_ZN23test_utility_test2_Test8TestBodyEv
FN:9,_ZN23test_utility_test2_TestC2Ev
FN:14,_ZN23test_utility_test3_TestD0Ev
FN:14,_ZN23test_utility_test3_TestC2Ev
FN:14,_ZN23test_utility_test3_Test8TestBodyEv
FN:14,_ZN23test_utility_test3_TestD2Ev
FNDA:5,_ZN23test_utility_test2_TestD0Ev
FNDA:5,_ZN23test_utility_test3_TestD0Ev
FNDA:5,_ZN23test_utility_test2_TestD2Ev
FNDA:5,_ZN23test_utility_test3_TestC2Ev
FNDA:5,_ZN23test_utility_test1_Test8TestBodyEv
FNDA:5,_ZN23test_utility_test2_Test8TestBodyEv
FNDA:5,_ZN23test_utility_test3_TestD2Ev
FNDA:5,_ZN23test_utility_test3_Test8TestBodyEv
FNDA:5,_ZN23test_utility_test1_TestD0Ev
FNDA:5,_ZN23test_utility_test1_TestC2Ev
FNDA:5,_ZN23test_utility_test1_TestD2Ev
FNDA:5,_ZN23test_utility_test2_TestC2Ev
FNF:12
FNH:12
DA:4,20
DA:6,5
DA:9,20
DA:11,5
DA:14,20
DA:16,5
LF:6
LH:6
end_of_record
TN:
SF:/usr/local/include/gtest/gtest-assertion-result.h
FN:171,_ZNK7testing15AssertionResultcvbEv
FN:180,_ZNK7testing15AssertionResult7messageEv
FN:184,_ZNK7testing15AssertionResult15failure_messageEv
FNDA:0,_ZNK7testing15AssertionResult15failure_messageEv
FNDA:0,_ZNK7testing15AssertionResult7messageEv
FNDA:25,_ZNK7testing15AssertionResultcvbEv
FNF:3
FNH:1
DA:171,25
DA:180,0
DA:181,0
DA:184,0
LF:4
LH:1
end_of_record
TN:
SF:/usr/local/include/gtest/gtest-printers.h
FN:213,_ZN7testing8internal52internal_stream_operator_without_lexical_name_lookup13StreamPrinter10PrintValueIivRSoEEvRKT_PSo
FN:307,_ZN7testing8internal17PrintWithFallbackIiEEvRKT_PSo
FN:334,_ZN7testing8internal19FormatForComparisonIiiE6FormatB5cxx11ERKi
FN:414,_ZN7testing8internal33FormatForComparisonFailureMessageIiiEENSt7__cxx1112basic_stringIcSt11char_traitsIcESaIcEEERKT_RKT0_
FN:441,_ZN7testing8internal7PrintToIiEEvRKT_PSo
FN:695,_ZN7testing8internal16UniversalPrinterIiE5PrintERKiPSo
FN:885,_ZN7testing8internal21UniversalTersePrinterIiE5PrintERKiPSo
FN:997,_ZN7testing8internal14UniversalPrintIiEEvRKT_PSo
FN:1037,_ZN7testing13PrintToStringIiEENSt7__cxx1112basic_stringIcSt11char_traitsIcESaIcEEERKT_
FNDA:0,_ZN7testing8internal33FormatForComparisonFailureMessageIiiEENSt7__cxx1112basic_stringIcSt11char_traitsIcESaIcEEERKT_RKT0_
FNDA:0,_ZN7testing8internal52internal_stream_operator_without_lexical_name_lookup13StreamPrinter10PrintValueIivRSoEEvRKT_PSo
FNDA:0,_ZN7testing8internal7PrintToIiEEvRKT_PSo
FNDA:0,_ZN7testing8internal17PrintWithFallbackIiEEvRKT_PSo
FNDA:0,_ZN7testing8internal21UniversalTersePrinterIiE5PrintERKiPSo
FNDA:0,_ZN7testing8internal14UniversalPrintIiEEvRKT_PSo
FNDA:0,_ZN7testing8internal16UniversalPrinterIiE5PrintERKiPSo
FNDA:0,_ZN7testing8internal19FormatForComparisonIiiE6FormatB5cxx11ERKi
FNDA:0,_ZN7testing13PrintToStringIiEENSt7__cxx1112basic_stringIcSt11char_traitsIcESaIcEEERKT_
FNF:9
FNH:0
DA:213,0
DA:216,0
DA:217,0
DA:307,0
DA:313,0
DA:314,0
DA:334,0
DA:335,0
DA:414,0
DA:416,0
DA:441,0
DA:442,0
DA:443,0
DA:695,0
DA:704,0
DA:705,0
DA:885,0
DA:886,0
DA:887,0
DA:997,0
DA:1001,0
DA:1002,0
DA:1037,0
DA:1038,0
DA:1039,0
DA:1040,0
LF:26
LH:0
end_of_record
TN:
SF:/usr/local/include/gtest/gtest.h
FN:244,_ZN7testing4Test14SetUpTestSuiteEv
FN:252,_ZN7testing4Test17TearDownTestSuiteEv
FN:257,_ZN7testing4Test16TearDownTestCaseEv
FN:258,_ZN7testing4Test13SetUpTestCaseEv
FN:339,_ZN7testing4Test5SetupEv
FN:1343,_ZN7testing8internal18CmpHelperEQFailureIiiEENS_15AssertionResultEPKcS4_RKT_RKT0_
FN:1362,_ZN7testing8internal11CmpHelperEQIiiEENS_15AssertionResultEPKcS4_RKT_RKT0_
FN:1382,_ZN7testing8internal8EqHelper7CompareIiiLPv0EEENS_15AssertionResultEPKcS6_RKT_RKT0_
FNDA:0,_ZN7testing4Test5SetupEv
FNDA:0,_ZN7testing4Test16TearDownTestCaseEv
FNDA:25,_ZN7testing8internal8EqHelper7CompareIiiLPv0EEENS_15AssertionResultEPKcS6_RKT_RKT0_
FNDA:25,_ZN7testing8internal11CmpHelperEQIiiEENS_15AssertionResultEPKcS4_RKT_RKT0_
FNDA:0,_ZN7testing4Test13SetUpTestCaseEv
FNDA:0,_ZN7testing8internal18CmpHelperEQFailureIiiEENS_15AssertionResultEPKcS4_RKT_RKT0_
FNDA:0,_ZN7testing4Test17TearDownTestSuiteEv
FNDA:0,_ZN7testing4Test14SetUpTestSuiteEv
FNF:8
FNH:2
DA:244,0
DA:252,0
DA:257,0
DA:258,0
DA:339,0
DA:1343,0
DA:1350,0
DA:1362,25
DA:1366,25
DA:1367,25
DA:1370,0
DA:1382,25
DA:1385,25
LF:13
LH:5
end_of_record
TN:
SF:/usr/local/include/gtest/internal/gtest-internal.h
FN:456,_ZN7testing8internal15TestFactoryBaseD2Ev
FN:456,_ZN7testing8internal15TestFactoryBaseD0Ev
FN:463,_ZN7testing8internal15TestFactoryBaseC2Ev
FN:474,_ZN7testing8internal15TestFactoryImplI23test_utility_test2_TestE10CreateTestEv
FN:474,_ZN7testing8internal15TestFactoryImplI23test_utility_test3_TestE10CreateTestEv
FN:474,_ZN7testing8internal15TestFactoryImplI23test_utility_test1_TestE10CreateTestEv
FN:474,_ZN7testing8internal15TestFactoryImplI15calc_test1_TestE10CreateTestEv
FN:495,_ZN7testing8internal12CodeLocationC2ERKNSt7__cxx1112basic_stringIcSt11char_traitsIcESaIcEEEi
FN:508,_ZN7testing8internal19GetNotDefaultOrNullEPFvvES2_
FN:523,_ZN7testing8internal16SuiteApiResolverINS_4TestEE19GetSetUpCaseOrSuiteEPKci
FN:544,_ZN7testing8internal16SuiteApiResolverINS_4TestEE22GetTearDownCaseOrSuiteEPKci
FNDA:10,_ZN7testing8internal15TestFactoryImplI23test_utility_test1_TestE10CreateTestEv
FNDA:160,_ZN7testing8internal19GetNotDefaultOrNullEPFvvES2_
FNDA:40,_ZN7testing8internal12CodeLocationC2ERKNSt7__cxx1112basic_stringIcSt11char_traitsIcESaIcEEEi
FNDA:0,_ZN7testing8internal15TestFactoryBaseD0Ev
FNDA:6,_ZN7testing8internal15TestFactoryImplI15calc_test1_TestE10CreateTestEv
FNDA:40,_ZN7testing8internal15TestFactoryBaseC2Ev
FNDA:40,_ZN7testing8internal16SuiteApiResolverINS_4TestEE19GetSetUpCaseOrSuiteEPKci
FNDA:40,_ZN7testing8internal16SuiteApiResolverINS_4TestEE22GetTearDownCaseOrSuiteEPKci
FNDA:40,_ZN7testing8internal15TestFactoryBaseD2Ev
FNDA:10,_ZN7testing8internal15TestFactoryImplI23test_utility_test3_TestE10CreateTestEv
FNDA:10,_ZN7testing8internal15TestFactoryImplI23test_utility_test2_TestE10CreateTestEv
FNF:11
FNH:10
DA:456,40
DA:463,40
DA:474,36
DA:495,40
DA:496,40
DA:508,160
DA:510,160
DA:523,40
DA:527,40
DA:529,40
DA:531,40
DA:534,0
DA:536,40
DA:544,40
DA:548,40
DA:550,40
DA:552,40
DA:555,0
DA:557,40
LF:19
LH:17
end_of_record
TN:
SF:/usr/local/include/gtest/internal/gtest-port.h
FN:987,_ZN7testing8internal8GTestLog9GetStreamEv
FNDA:0,_ZN7testing8internal8GTestLog9GetStreamEv
FNF:1
FNH:0
DA:987,0
LF:1
LH:0
end_of_record
